; Function Attrs: nounwind uwtable
define internal fastcc noundef i32 @get_bool_option(ptr noundef %0, ptr nocapture noundef writeonly %1, i64 %2, i64 %3, ptr noundef %4) unnamed_addr #0 {
  %6 = tail call { i64, i64 } @JS_GetPropertyStr(ptr noundef %0, i64 %2, i64 %3, ptr noundef %4) #29
  %7 = extractvalue { i64, i64 } %6, 0
  %8 = extractvalue { i64, i64 } %6, 1
  %trunc = trunc i64 %8 to i32
  switch i32 %trunc, label %9 [
    i32 6, label %JS_FreeValue.exit
    i32 3, label %.thread
  ]

.thread:                                          ; preds = %5
  br label %JS_FreeValue.exit

9:                                                ; preds = %5
  %10 = tail call i32 @JS_ToBool(ptr noundef %0, i64 %7, i64 %8) #29
  store i32 %10, ptr %1, align 4
  %11 = icmp ugt i32 %trunc, -12
  br i1 %11, label %12, label %JS_FreeValue.exit

12:                                               ; preds = %9
  %13 = inttoptr i64 %7 to ptr
  %14 = load i32, ptr %13, align 4
  %15 = add i32 %14, -1
  store i32 %15, ptr %13, align 4
  %16 = icmp slt i32 %15, 1
  br i1 %16, label %17, label %JS_FreeValue.exit

17:                                               ; preds = %12
  tail call void @__JS_FreeValue(ptr noundef %0, i64 %7, i64 %8) #29
  br label %JS_FreeValue.exit

JS_FreeValue.exit:                                ; preds = %.thread, %5, %17, %12, %9
  %.0 = phi i32 [ -1, %5 ], [ 0, %9 ], [ 0, %12 ], [ 0, %17 ], [ 0, %.thread ]
  ret i32 %.0
}